target datalayout = "e-m:e-p270:32:32-p271:32:32-p272:64:64-i64:64-i128:128-f80:128-n8:16:32:64-S128"
target triple = "x86_64-pc-linux-gnu"

%struct._zval_struct = type { %union._zend_value, %union.anon, %union.anon.2 }
%union._zend_value = type { i64 }
%union.anon = type { i32 }
%union.anon.2 = type { i32 }
%struct._zend_refcounted_h = type { i32, %union.anon.3 }
%union.anon.3 = type { i32 }
%struct._zend_object = type { %struct._zend_refcounted_h, i32, ptr, ptr, ptr, [1 x %struct._zval_struct] }
%struct._php_libxml_node_ptr = type { ptr, i32, ptr }
%struct._xmlNode = type { ptr, i32, ptr, ptr, ptr, ptr, ptr, ptr, ptr, ptr, ptr, ptr, ptr, ptr, i16, i16 }
%struct._php_libxml_ref_obj = type { ptr, ptr, %struct.php_libxml_cache_tag, i32, i8 }
%struct.php_libxml_cache_tag = type { i64 }
%struct._xmlAttr = type { ptr, i32, ptr, ptr, ptr, ptr, ptr, ptr, ptr, ptr, i32, ptr }
%struct._php_libxml_node_object = type { ptr, ptr, %struct._zend_object }

; Function Attrs: nounwind uwtable
define internal void @php_dom_transfer_document_ref(ptr noundef %0, ptr noundef %1) #0 {
  %3 = alloca ptr, align 8
  %4 = alloca ptr, align 8
  %5 = alloca ptr, align 8
  %6 = alloca ptr, align 8
  %7 = alloca ptr, align 8
  %8 = alloca ptr, align 8
  %9 = alloca ptr, align 8
  %10 = alloca ptr, align 8
  %11 = alloca ptr, align 8
  %12 = alloca ptr, align 8
  %13 = alloca ptr, align 8
  store ptr %0, ptr %11, align 8
  store ptr %1, ptr %12, align 8
  %14 = load ptr, ptr %11, align 8
  %15 = getelementptr inbounds %struct._xmlNode, ptr %14, i32 0, i32 3
  %16 = load ptr, ptr %15, align 8
  %17 = icmp ne ptr %16, null
  br i1 %17, label %18, label %23

18:                                               ; preds = %2
  %19 = load ptr, ptr %11, align 8
  %20 = getelementptr inbounds %struct._xmlNode, ptr %19, i32 0, i32 3
  %21 = load ptr, ptr %20, align 8
  %22 = load ptr, ptr %12, align 8
  call void @php_dom_transfer_document_ref(ptr noundef %21, ptr noundef %22)
  br label %23

23:                                               ; preds = %18, %2
  br label %24

24:                                               ; preds = %89, %23
  %25 = load ptr, ptr %11, align 8
  %26 = icmp ne ptr %25, null
  br i1 %26, label %27, label %93

27:                                               ; preds = %24
  %28 = load ptr, ptr %11, align 8
  %29 = getelementptr inbounds %struct._xmlNode, ptr %28, i32 0, i32 1
  %30 = load i32, ptr %29, align 8
  %31 = icmp eq i32 %30, 1
  br i1 %31, label %32, label %67

32:                                               ; preds = %27
  %33 = load ptr, ptr %11, align 8
  %34 = getelementptr inbounds %struct._xmlNode, ptr %33, i32 0, i32 11
  %35 = load ptr, ptr %34, align 8
  store ptr %35, ptr %13, align 8
  br label %36

36:                                               ; preds = %62, %32
  %37 = load ptr, ptr %13, align 8
  %38 = icmp ne ptr %37, null
  br i1 %38, label %39, label %66

39:                                               ; preds = %36
  %40 = load ptr, ptr %13, align 8
  %41 = load ptr, ptr %12, align 8
  store ptr %40, ptr %3, align 8
  store ptr %41, ptr %4, align 8
  %42 = load ptr, ptr %3, align 8
  %43 = load ptr, ptr %42, align 8
  store ptr %43, ptr %5, align 8
  %44 = load ptr, ptr %5, align 8
  %45 = icmp ne ptr %44, null
  br i1 %45, label %46, label %61

46:                                               ; preds = %39
  %47 = load ptr, ptr %5, align 8
  %48 = getelementptr inbounds %struct._php_libxml_node_ptr, ptr %47, i32 0, i32 2
  %49 = load ptr, ptr %48, align 8
  store ptr %49, ptr %6, align 8
  %50 = load ptr, ptr %6, align 8
  %51 = icmp ne ptr %50, null
  call void @llvm.assume(i1 %51)
  %52 = load ptr, ptr %4, align 8
  %53 = getelementptr inbounds %struct._php_libxml_ref_obj, ptr %52, i32 0, i32 3
  %54 = load i32, ptr %53, align 8
  %55 = add nsw i32 %54, 1
  store i32 %55, ptr %53, align 8
  %56 = load ptr, ptr %6, align 8
  %57 = call i32 @php_libxml_decrement_doc_ref(ptr noundef %56) #10
  %58 = load ptr, ptr %4, align 8
  %59 = load ptr, ptr %6, align 8
  %60 = getelementptr inbounds %struct._php_libxml_node_object, ptr %59, i32 0, i32 1
  store ptr %58, ptr %60, align 8
  br label %61

61:                                               ; preds = %46, %39
  br label %62

62:                                               ; preds = %61
  %63 = load ptr, ptr %13, align 8
  %64 = getelementptr inbounds %struct._xmlAttr, ptr %63, i32 0, i32 6
  %65 = load ptr, ptr %64, align 8
  store ptr %65, ptr %13, align 8
  br label %36

66:                                               ; preds = %36
  br label %67

67:                                               ; preds = %66, %27
  %68 = load ptr, ptr %11, align 8
  %69 = load ptr, ptr %12, align 8
  store ptr %68, ptr %7, align 8
  store ptr %69, ptr %8, align 8
  %70 = load ptr, ptr %7, align 8
  %71 = load ptr, ptr %70, align 8
  store ptr %71, ptr %9, align 8
  %72 = load ptr, ptr %9, align 8
  %73 = icmp ne ptr %72, null
  br i1 %73, label %74, label %89

74:                                               ; preds = %67
  %75 = load ptr, ptr %9, align 8
  %76 = getelementptr inbounds %struct._php_libxml_node_ptr, ptr %75, i32 0, i32 2
  %77 = load ptr, ptr %76, align 8
  store ptr %77, ptr %10, align 8
  %78 = load ptr, ptr %10, align 8
  %79 = icmp ne ptr %78, null
  call void @llvm.assume(i1 %79)
  %80 = load ptr, ptr %8, align 8
  %81 = getelementptr inbounds %struct._php_libxml_ref_obj, ptr %80, i32 0, i32 3
  %82 = load i32, ptr %81, align 8
  %83 = add nsw i32 %82, 1
  store i32 %83, ptr %81, align 8
  %84 = load ptr, ptr %10, align 8
  %85 = call i32 @php_libxml_decrement_doc_ref(ptr noundef %84) #10
  %86 = load ptr, ptr %8, align 8
  %87 = load ptr, ptr %10, align 8
  %88 = getelementptr inbounds %struct._php_libxml_node_object, ptr %87, i32 0, i32 1
  store ptr %86, ptr %88, align 8
  br label %89

89:                                               ; preds = %74, %67
  %90 = load ptr, ptr %11, align 8
  %91 = getelementptr inbounds %struct._xmlNode, ptr %90, i32 0, i32 6
  %92 = load ptr, ptr %91, align 8
  store ptr %92, ptr %11, align 8
  br label %24

93:                                               ; preds = %24
  ret void
}