; Function Attrs: nounwind uwtable
define internal fastcc void @php_dom_transfer_document_ref(ptr nocapture noundef readonly %0, ptr noundef %1) unnamed_addr #0 {
  %3 = getelementptr inbounds i8, ptr %0, i64 24
  %4 = load ptr, ptr %3, align 8
  %.not = icmp eq ptr %4, null
  br i1 %.not, label %.lr.ph42, label %5

5:                                                ; preds = %2
  tail call fastcc void @php_dom_transfer_document_ref(ptr noundef nonnull %4, ptr noundef %1)
  br label %.lr.ph42

.lr.ph42:                                         ; preds = %2, %5
  %6 = getelementptr inbounds i8, ptr %1, i64 24
  br label %7

7:                                                ; preds = %.lr.ph42, %31
  %.02941 = phi ptr [ %0, %.lr.ph42 ], [ %33, %31 ]
  %8 = getelementptr inbounds i8, ptr %.02941, i64 8
  %9 = load i32, ptr %8, align 8
  %10 = icmp eq i32 %9, 1
  br i1 %10, label %11, label %.loopexit

11:                                               ; preds = %7
  %12 = getelementptr inbounds i8, ptr %.02941, i64 88
  %.037 = load ptr, ptr %12, align 8
  %.not3438 = icmp eq ptr %.037, null
  br i1 %.not3438, label %.loopexit, label %.lr.ph

.lr.ph:                                           ; preds = %11, %21
  %.039 = phi ptr [ %.0, %21 ], [ %.037, %11 ]
  %13 = load ptr, ptr %.039, align 8
  %.not36 = icmp eq ptr %13, null
  br i1 %.not36, label %21, label %14

14:                                               ; preds = %.lr.ph
  %15 = getelementptr inbounds i8, ptr %13, i64 16
  %16 = load ptr, ptr %15, align 8, !nonnull !4, !noundef !4
  %17 = load i32, ptr %6, align 8
  %18 = add nsw i32 %17, 1
  store i32 %18, ptr %6, align 8
  %19 = tail call i32 @php_libxml_decrement_doc_ref(ptr noundef nonnull %16) #10
  %20 = getelementptr inbounds i8, ptr %16, i64 8
  store ptr %1, ptr %20, align 8
  br label %21

21:                                               ; preds = %.lr.ph, %14
  %22 = getelementptr inbounds i8, ptr %.039, i64 48
  %.0 = load ptr, ptr %22, align 8
  %.not34 = icmp eq ptr %.0, null
  br i1 %.not34, label %.loopexit, label %.lr.ph

.loopexit:                                        ; preds = %21, %11, %7
  %23 = load ptr, ptr %.02941, align 8
  %.not35 = icmp eq ptr %23, null
  br i1 %.not35, label %31, label %24

24:                                               ; preds = %.loopexit
  %25 = getelementptr inbounds i8, ptr %23, i64 16
  %26 = load ptr, ptr %25, align 8, !nonnull !4, !noundef !4
  %27 = load i32, ptr %6, align 8
  %28 = add nsw i32 %27, 1
  store i32 %28, ptr %6, align 8
  %29 = tail call i32 @php_libxml_decrement_doc_ref(ptr noundef nonnull %26) #10
  %30 = getelementptr inbounds i8, ptr %26, i64 8
  store ptr %1, ptr %30, align 8
  br label %31

31:                                               ; preds = %24, %.loopexit
  %32 = getelementptr inbounds i8, ptr %.02941, i64 48
  %33 = load ptr, ptr %32, align 8
  %.not33 = icmp eq ptr %33, null
  br i1 %.not33, label %._crit_edge, label %7

._crit_edge:                                      ; preds = %31
  ret void
}